; ModuleID = '33/1396.c'
source_filename = "33/1396.c"
target datalayout = "e-m:e-p270:32:32-p271:32:32-p272:64:64-i64:64-f80:128-n8:16:32:64-S128"
target triple = "x86_64-pc-linux-gnu"

@.str = private unnamed_addr constant [3 x i8] c"%d\00", align 1
@.str.1 = private unnamed_addr constant [3 x i8] c"%s\00", align 1
@.str.2 = private unnamed_addr constant [4 x i8] c"%s\0A\00", align 1

; Function Attrs: noinline nounwind uwtable
define dso_local i32 @main() #0 {
  %1 = alloca i32, align 4
  %2 = alloca [256 x i8], align 16
  %3 = alloca [256 x i8], align 16
  %4 = alloca i32, align 4
  %5 = alloca i32, align 4
  %6 = alloca i32, align 4
  %7 = alloca i32, align 4
  store i32 0, i32* %1, align 4
  %8 = call i32 (i8*, ...) @__isoc99_scanf(i8* getelementptr inbounds ([3 x i8], [3 x i8]* @.str, i64 0, i64 0), i32* %7)
  store i32 1, i32* %4, align 4
  br label %9

9:                                                ; preds = %41, %0
  %10 = load i32, i32* %4, align 4
  %11 = load i32, i32* %7, align 4
  %12 = icmp sle i32 %10, %11
  br i1 %12, label %13, label %44

13:                                               ; preds = %9
  %14 = getelementptr inbounds [256 x i8], [256 x i8]* %2, i64 0, i64 0
  %15 = call i32 (i8*, ...) @__isoc99_scanf(i8* getelementptr inbounds ([3 x i8], [3 x i8]* @.str.1, i64 0, i64 0), i8* %14)
  %16 = getelementptr inbounds [256 x i8], [256 x i8]* %2, i64 0, i64 0
  %17 = call i64 @strlen(i8* %16) #3
  %18 = trunc i64 %17 to i32
  store i32 %18, i32* %6, align 4
  store i32 0, i32* %5, align 4
  br label %19

19:                                               ; preds = %32, %13
  %20 = load i32, i32* %5, align 4
  %21 = load i32, i32* %6, align 4
  %22 = icmp slt i32 %20, %21
  br i1 %22, label %23, label %35

23:                                               ; preds = %19
  %24 = load i32, i32* %5, align 4
  %25 = sext i32 %24 to i64
  %26 = getelementptr inbounds [256 x i8], [256 x i8]* %2, i64 0, i64 %25
  %27 = load i8, i8* %26, align 1
  %28 = call signext i8 @pd(i8 signext %27)
  %29 = load i32, i32* %5, align 4
  %30 = sext i32 %29 to i64
  %31 = getelementptr inbounds [256 x i8], [256 x i8]* %3, i64 0, i64 %30
  store i8 %28, i8* %31, align 1
  br label %32

32:                                               ; preds = %23
  %33 = load i32, i32* %5, align 4
  %34 = add nsw i32 %33, 1
  store i32 %34, i32* %5, align 4
  br label %19

35:                                               ; preds = %19
  %36 = load i32, i32* %6, align 4
  %37 = sext i32 %36 to i64
  %38 = getelementptr inbounds [256 x i8], [256 x i8]* %3, i64 0, i64 %37
  store i8 0, i8* %38, align 1
  %39 = getelementptr inbounds [256 x i8], [256 x i8]* %3, i64 0, i64 0
  %40 = call i32 (i8*, ...) @printf(i8* getelementptr inbounds ([4 x i8], [4 x i8]* @.str.2, i64 0, i64 0), i8* %39)
  br label %41

41:                                               ; preds = %35
  %42 = load i32, i32* %4, align 4
  %43 = add nsw i32 %42, 1
  store i32 %43, i32* %4, align 4
  br label %9

44:                                               ; preds = %9
  ret i32 0
}

declare dso_local i32 @__isoc99_scanf(i8*, ...) #1

; Function Attrs: nounwind readonly
declare dso_local i64 @strlen(i8*) #2

; Function Attrs: noinline nounwind uwtable
define dso_local signext i8 @pd(i8 signext %0) #0 {
  %2 = alloca i8, align 1
  %3 = alloca i8, align 1
  store i8 %0, i8* %2, align 1
  %4 = load i8, i8* %2, align 1
  %5 = sext i8 %4 to i32
  %6 = icmp eq i32 %5, 65
  br i1 %6, label %7, label %8

7:                                                ; preds = %1
  store i8 84, i8* %3, align 1
  br label %8

8:                                                ; preds = %7, %1
  %9 = load i8, i8* %2, align 1
  %10 = sext i8 %9 to i32
  %11 = icmp eq i32 %10, 84
  br i1 %11, label %12, label %13

12:                                               ; preds = %8
  store i8 65, i8* %3, align 1
  br label %13

13:                                               ; preds = %12, %8
  %14 = load i8, i8* %2, align 1
  %15 = sext i8 %14 to i32
  %16 = icmp eq i32 %15, 67
  br i1 %16, label %17, label %18

17:                                               ; preds = %13
  store i8 71, i8* %3, align 1
  br label %18

18:                                               ; preds = %17, %13
  %19 = load i8, i8* %2, align 1
  %20 = sext i8 %19 to i32
  %21 = icmp eq i32 %20, 71
  br i1 %21, label %22, label %23

22:                                               ; preds = %18
  store i8 67, i8* %3, align 1
  br label %23

23:                                               ; preds = %22, %18
  %24 = load i8, i8* %3, align 1
  ret i8 %24
}

declare dso_local i32 @printf(i8*, ...) #1


!llvm.module.flags = !{!0}
!llvm.ident = !{!1}

!0 = !{i32 1, !"wchar_size", i32 4}
!1 = !{!"clang version 10.0.0-4ubuntu1 "}
